; Function Attrs: mustprogress nounwind uwtable
define noundef zeroext i1 @_ZN7glslang11HlslGrammar21acceptParenExpressionERPNS_12TIntermTypedE(ptr noundef nonnull align 8 dereferenceable(360) %0, ptr noundef nonnull align 8 dereferenceable(8) %1) local_unnamed_addr #0 align 2 {
  %3 = alloca ptr, align 8
  store ptr null, ptr %1, align 8
  %4 = tail call noundef zeroext i1 @_ZN7glslang15HlslTokenStream16acceptTokenClassENS_15EHlslTokenClassE(ptr noundef nonnull align 8 dereferenceable(324) %0, i32 noundef 355) #16
  br i1 %4, label %12, label %5

5:                                                ; preds = %2
  %6 = getelementptr inbounds i8, ptr %0, i64 328
  %7 = load ptr, ptr %6, align 8
  %8 = getelementptr inbounds i8, ptr %0, i64 8
  %9 = load ptr, ptr %7, align 8
  %10 = getelementptr inbounds i8, ptr %9, i64 344
  %11 = load ptr, ptr %10, align 8
  tail call void (ptr, ptr, ptr, ptr, ptr, ...) %11(ptr noundef nonnull align 8 dereferenceable(1280) %7, ptr noundef nonnull align 8 dereferenceable(24) %8, ptr noundef nonnull @.str, ptr noundef nonnull @.str.74, ptr noundef nonnull @.str.1) #16
  br label %12

12:                                               ; preds = %5, %2
  store ptr null, ptr %3, align 8
  %13 = call noundef zeroext i1 @_ZN7glslang11HlslGrammar24acceptControlDeclarationERP11TIntermNode(ptr noundef nonnull align 8 dereferenceable(360) %0, ptr noundef nonnull align 8 dereferenceable(8) %3)
  br i1 %13, label %14, label %28

14:                                               ; preds = %12
  %15 = load ptr, ptr %3, align 8
  %16 = icmp eq ptr %15, null
  br i1 %16, label %.sink.split, label %17

17:                                               ; preds = %14
  %18 = load ptr, ptr %15, align 8
  %19 = getelementptr inbounds i8, ptr %18, i64 24
  %20 = load ptr, ptr %19, align 8
  %21 = tail call noundef ptr %20(ptr noundef nonnull align 8 dereferenceable(32) %15) #16
  %22 = icmp eq ptr %21, null
  br i1 %22, label %.sink.split, label %23

23:                                               ; preds = %17
  %24 = load ptr, ptr %15, align 8
  %25 = getelementptr inbounds i8, ptr %24, i64 24
  %26 = load ptr, ptr %25, align 8
  %27 = tail call noundef ptr %26(ptr noundef nonnull align 8 dereferenceable(32) %15) #16
  store ptr %27, ptr %1, align 8
  br label %30

28:                                               ; preds = %12
  %29 = tail call noundef zeroext i1 @_ZN7glslang11HlslGrammar16acceptExpressionERPNS_12TIntermTypedE(ptr noundef nonnull align 8 dereferenceable(360) %0, ptr noundef nonnull align 8 dereferenceable(8) %1)
  br i1 %29, label %30, label %.sink.split

30:                                               ; preds = %28, %23
  %31 = tail call noundef zeroext i1 @_ZN7glslang15HlslTokenStream16acceptTokenClassENS_15EHlslTokenClassE(ptr noundef nonnull align 8 dereferenceable(324) %0, i32 noundef 356) #16
  br i1 %31, label %38, label %.sink.split

.sink.split:                                      ; preds = %30, %28, %14, %17
  %.str.43.sink = phi ptr [ @.str.75, %17 ], [ @.str.75, %14 ], [ @.str.42, %28 ], [ @.str.43, %30 ]
  %.0.ph = phi i1 [ false, %17 ], [ false, %14 ], [ false, %28 ], [ true, %30 ]
  %32 = getelementptr inbounds i8, ptr %0, i64 328
  %33 = load ptr, ptr %32, align 8
  %34 = getelementptr inbounds i8, ptr %0, i64 8
  %35 = load ptr, ptr %33, align 8
  %36 = getelementptr inbounds i8, ptr %35, i64 344
  %37 = load ptr, ptr %36, align 8
  tail call void (ptr, ptr, ptr, ptr, ptr, ...) %37(ptr noundef nonnull align 8 dereferenceable(1280) %33, ptr noundef nonnull align 8 dereferenceable(24) %34, ptr noundef nonnull @.str, ptr noundef nonnull %.str.43.sink, ptr noundef nonnull @.str.1) #16
  br label %38

38:                                               ; preds = %.sink.split, %30
  %.0 = phi i1 [ true, %30 ], [ %.0.ph, %.sink.split ]
  ret i1 %.0
}